; Function Attrs: nounwind uwtable
define internal fastcc ptr @_init_l_Lean_PrettyPrinter_Parenthesizer_rawStx_parenthesizer___regBuiltin_Lean_PrettyPrinter_Parenthesizer_rawStx_parenthesizer__1___closed__3() unnamed_addr #0 {
  %1 = load ptr, ptr @l_Lean_PrettyPrinter_mkParenthesizerAttribute___closed__5, align 8, !tbaa !4
  %2 = load ptr, ptr @l_Lean_PrettyPrinter_mkParenthesizerAttribute___closed__6, align 8, !tbaa !4
  %3 = load ptr, ptr @l_Lean_PrettyPrinter_mkParenthesizerAttribute___closed__7, align 8, !tbaa !4
  %4 = load ptr, ptr @l_Lean_PrettyPrinter_Parenthesizer_rawStx_parenthesizer___regBuiltin_Lean_PrettyPrinter_Parenthesizer_rawStx_parenthesizer__1___closed__1, align 8, !tbaa !4
  %5 = load ptr, ptr @l_Lean_PrettyPrinter_mkParenthesizerAttribute___closed__3, align 8, !tbaa !4
  %6 = tail call ptr @l_Lean_Name_mkStr5(ptr noundef %1, ptr noundef %2, ptr noundef %3, ptr noundef %4, ptr noundef %5) #6
  ret ptr %6
}